target datalayout = "e-m:e-p270:32:32-p271:32:32-p272:64:64-i64:64-i128:128-f80:128-n8:16:32:64-S128"
target triple = "x86_64-pc-linux-gnu"

%"class.spacer::unsat_core_plugin" = type { ptr, ptr, ptr }
%class.vector.31 = type { ptr }
%class.rational = type { %class.mpq }
%class.mpq = type { %class.mpz, %class.mpz }
%class.mpz = type { i32, i8, ptr }
%"struct.std::pair" = type { %class.rational, ptr }
%class.svector.22 = type { %class.vector.23 }
%class.vector.23 = type { ptr }
%class.obj_ref = type { ptr, ptr }
%"class.spacer::unsat_core_plugin_farkas_lemma" = type <{ %"class.spacer::unsat_core_plugin", i8, i8, [6 x i8] }>
%class.ast = type { i32, i32, i32, i32 }
%"class.smt::farkas_util" = type { ptr, %class.arith_util, %class.ref_vector.45, %class.vector.50, %class.rational, i8, i32, %class.svector.22, %class.svector.22, %class.svector.22, %class.svector.22, %class.svector.22 }
%class.arith_util = type { ptr, ptr }
%class.ref_vector.45 = type { %class.ref_vector_core.46 }
%class.ref_vector_core.46 = type { %class.ref_manager_wrapper.47, %class.ptr_vector.48 }
%class.ref_manager_wrapper.47 = type { ptr }
%class.ptr_vector.48 = type { %class.vector.49 }
%class.vector.49 = type { ptr }
%class.vector.50 = type { ptr }

; Function Attrs: mustprogress nounwind uwtable
define linkonce_odr hidden void @_ZN3ast7inc_refEv(ptr noundef nonnull align 4 dereferenceable(16) %0) #5 comdat align 2 {
  %2 = alloca ptr, align 8
  store ptr %0, ptr %2, align 8, !tbaa !102
  %3 = load ptr, ptr %2, align 8
  %4 = getelementptr inbounds nuw %class.ast, ptr %3, i32 0, i32 2
  %5 = load i32, ptr %4, align 4, !tbaa !358
  %6 = add i32 %5, 1
  store i32 %6, ptr %4, align 4, !tbaa !358
  ret void
}

; Function Attrs: mustprogress uwtable
define linkonce_odr hidden void @_ZN11ast_manager7inc_refEP3ast(ptr noundef nonnull align 8 dereferenceable(976) %0, ptr noundef %1) #4 comdat align 2 {
  %3 = alloca ptr, align 8
  %4 = alloca ptr, align 8
  store ptr %0, ptr %3, align 8, !tbaa !12
  store ptr %1, ptr %4, align 8, !tbaa !102
  %5 = load ptr, ptr %4, align 8, !tbaa !102
  %6 = icmp ne ptr %5, null
  br i1 %6, label %7, label %9

7:                                                ; preds = %2
  %8 = load ptr, ptr %4, align 8, !tbaa !102
  call void @_ZN3ast7inc_refEv(ptr noundef nonnull align 4 dereferenceable(16) %8)
  br label %9

9:                                                ; preds = %7, %2
  ret void
}

; Function Attrs: mustprogress uwtable
define linkonce_odr hidden void @_ZN7obj_refI4expr11ast_managerE7inc_refEv(ptr noundef nonnull align 8 dereferenceable(16) %0) #4 comdat align 2 {
  %2 = alloca ptr, align 8
  store ptr %0, ptr %2, align 8, !tbaa !122
  %3 = load ptr, ptr %2, align 8
  %4 = getelementptr inbounds nuw %class.obj_ref, ptr %3, i32 0, i32 0
  %5 = load ptr, ptr %4, align 8, !tbaa !124
  %6 = icmp ne ptr %5, null
  br i1 %6, label %7, label %12

7:                                                ; preds = %1
  %8 = getelementptr inbounds nuw %class.obj_ref, ptr %3, i32 0, i32 1
  %9 = load ptr, ptr %8, align 8, !tbaa !357
  %10 = getelementptr inbounds nuw %class.obj_ref, ptr %3, i32 0, i32 0
  %11 = load ptr, ptr %10, align 8, !tbaa !124
  call void @_ZN11ast_manager7inc_refEP3ast(ptr noundef nonnull align 8 dereferenceable(976) %9, ptr noundef %11)
  br label %12

12:                                               ; preds = %7, %1
  ret void
}

; Function Attrs: mustprogress nounwind uwtable
define linkonce_odr hidden noundef i32 @_ZNK6vectorISt4pairI8rationalP3appELb1EjE4sizeEv(ptr noundef nonnull align 8 dereferenceable(8) %0) #5 comdat align 2 {
  %2 = alloca i32, align 4
  %3 = alloca ptr, align 8
  store ptr %0, ptr %3, align 8, !tbaa !83
  %4 = load ptr, ptr %3, align 8
  %5 = getelementptr inbounds nuw %class.vector.31, ptr %4, i32 0, i32 0
  %6 = load ptr, ptr %5, align 8, !tbaa !85
  %7 = icmp eq ptr %6, null
  br i1 %7, label %8, label %9

8:                                                ; preds = %1
  store i32 0, ptr %2, align 4
  br label %14

9:                                                ; preds = %1
  %10 = getelementptr inbounds nuw %class.vector.31, ptr %4, i32 0, i32 0
  %11 = load ptr, ptr %10, align 8, !tbaa !85
  %12 = getelementptr inbounds i32, ptr %11, i64 -1
  %13 = load i32, ptr %12, align 4, !tbaa !48
  store i32 %13, ptr %2, align 4
  br label %14

14:                                               ; preds = %9, %8
  %15 = load i32, ptr %2, align 4
  ret i32 %15
}

; Function Attrs: mustprogress uwtable
define linkonce_odr hidden void @_ZN7obj_refI4expr11ast_managerEC2EPS0_RS1_(ptr noundef nonnull align 8 dereferenceable(16) %0, ptr noundef %1, ptr noundef nonnull align 8 dereferenceable(976) %2) unnamed_addr #4 comdat align 2 {
  %4 = alloca ptr, align 8
  %5 = alloca ptr, align 8
  %6 = alloca ptr, align 8
  store ptr %0, ptr %4, align 8, !tbaa !122
  store ptr %1, ptr %5, align 8, !tbaa !51
  store ptr %2, ptr %6, align 8, !tbaa !12
  %7 = load ptr, ptr %4, align 8
  %8 = getelementptr inbounds nuw %class.obj_ref, ptr %7, i32 0, i32 0
  %9 = load ptr, ptr %5, align 8, !tbaa !51
  store ptr %9, ptr %8, align 8, !tbaa !124
  %10 = getelementptr inbounds nuw %class.obj_ref, ptr %7, i32 0, i32 1
  %11 = load ptr, ptr %6, align 8, !tbaa !12
  store ptr %11, ptr %10, align 8, !tbaa !12
  call void @_ZN7obj_refI4expr11ast_managerE7inc_refEv(ptr noundef nonnull align 8 dereferenceable(16) %7)
  ret void
}

; Function Attrs: mustprogress nounwind uwtable
define linkonce_odr hidden noundef ptr @_ZNK7obj_refI4expr11ast_managerEcvPS0_Ev(ptr noundef nonnull align 8 dereferenceable(16) %0) #5 comdat align 2 {
  %2 = alloca ptr, align 8
  store ptr %0, ptr %2, align 8, !tbaa !122
  %3 = load ptr, ptr %2, align 8
  %4 = getelementptr inbounds nuw %class.obj_ref, ptr %3, i32 0, i32 0
  %5 = load ptr, ptr %4, align 8, !tbaa !124
  ret ptr %5
}

; Function Attrs: mustprogress nounwind uwtable
define linkonce_odr hidden noundef ptr @_ZNK6vectorISt4pairI8rationalP3appELb1EjE3endEv(ptr noundef nonnull align 8 dereferenceable(8) %0) #5 comdat align 2 {
  %2 = alloca ptr, align 8
  store ptr %0, ptr %2, align 8, !tbaa !83
  %3 = load ptr, ptr %2, align 8
  %4 = getelementptr inbounds nuw %class.vector.31, ptr %3, i32 0, i32 0
  %5 = load ptr, ptr %4, align 8, !tbaa !85
  %6 = call noundef i32 @_ZNK6vectorISt4pairI8rationalP3appELb1EjE4sizeEv(ptr noundef nonnull align 8 dereferenceable(8) %3)
  %7 = zext i32 %6 to i64
  %8 = getelementptr inbounds nuw %"struct.std::pair", ptr %5, i64 %7
  ret ptr %8
}

; Function Attrs: mustprogress nounwind uwtable
define linkonce_odr hidden noundef ptr @_ZNK6vectorISt4pairI8rationalP3appELb1EjE5beginEv(ptr noundef nonnull align 8 dereferenceable(8) %0) #5 comdat align 2 {
  %2 = alloca ptr, align 8
  store ptr %0, ptr %2, align 8, !tbaa !83
  %3 = load ptr, ptr %2, align 8
  %4 = getelementptr inbounds nuw %class.vector.31, ptr %3, i32 0, i32 0
  %5 = load ptr, ptr %4, align 8, !tbaa !85
  ret ptr %5
}

; Function Attrs: mustprogress nounwind uwtable
define linkonce_odr hidden void @_ZN3smt11farkas_util18set_split_literalsEb(ptr noundef nonnull align 8 dereferenceable(128) %0, i1 noundef zeroext %1) #5 comdat align 2 {
  %3 = alloca ptr, align 8
  %4 = alloca i8, align 1
  store ptr %0, ptr %3, align 8, !tbaa !135
  %5 = zext i1 %1 to i8
  store i8 %5, ptr %4, align 1, !tbaa !69
  %6 = load ptr, ptr %3, align 8
  %7 = load i8, ptr %4, align 1, !tbaa !69, !range !73, !noundef !74
  %8 = trunc i8 %7 to i1
  %9 = getelementptr inbounds nuw %"class.smt::farkas_util", ptr %6, i32 0, i32 5
  %10 = zext i1 %8 to i8
  store i8 %10, ptr %9, align 8, !tbaa !137
  ret void
}

; Function Attrs: mustprogress uwtable
define hidden void @_ZN6spacer30unsat_core_plugin_farkas_lemma26compute_linear_combinationERK6vectorISt4pairI8rationalP3appELb1EjE(ptr dead_on_unwind noalias writable sret(%class.obj_ref) align 8 %0, ptr noundef nonnull align 8 dereferenceable(26) %1, ptr noundef nonnull align 8 dereferenceable(8) %2) #4 align 2 personality ptr @__gxx_personality_v0 {
  %4 = alloca ptr, align 8
  %5 = alloca ptr, align 8
  %6 = alloca ptr, align 8
  %7 = alloca %"class.smt::farkas_util", align 8
  %8 = alloca ptr, align 8
  %9 = alloca i32, align 4
  %10 = alloca ptr, align 8
  %11 = alloca ptr, align 8
  %12 = alloca ptr, align 8
  %13 = alloca ptr, align 8
  %14 = alloca i32, align 4
  %15 = alloca %class.obj_ref, align 8
  store ptr %0, ptr %4, align 8
  store ptr %1, ptr %5, align 8, !tbaa !63
  store ptr %2, ptr %6, align 8, !tbaa !83
  %16 = load ptr, ptr %5, align 8
  call void @llvm.lifetime.start.p0(i64 128, ptr %7) #3
  %17 = getelementptr inbounds nuw %"class.spacer::unsat_core_plugin", ptr %16, i32 0, i32 1
  %18 = load ptr, ptr %17, align 8, !tbaa !39
  call void @_ZN3smt11farkas_utilC1ER11ast_manager(ptr noundef nonnull align 8 dereferenceable(128) %7, ptr noundef nonnull align 8 dereferenceable(976) %18)
  %19 = getelementptr inbounds nuw %"class.spacer::unsat_core_plugin_farkas_lemma", ptr %16, i32 0, i32 2
  %20 = load i8, ptr %19, align 1, !tbaa !71, !range !73, !noundef !74
  %21 = trunc i8 %20 to i1
  br i1 %21, label %22, label %31

22:                                               ; preds = %3
  %23 = getelementptr inbounds nuw %"class.spacer::unsat_core_plugin_farkas_lemma", ptr %16, i32 0, i32 1
  %24 = load i8, ptr %23, align 8, !tbaa !128, !range !73, !noundef !74
  %25 = trunc i8 %24 to i1
  invoke void @_ZN3smt11farkas_util18set_split_literalsEb(ptr noundef nonnull align 8 dereferenceable(128) %7, i1 noundef zeroext %25)
          to label %26 unwind label %27

26:                                               ; preds = %22
  br label %31

27:                                               ; preds = %74, %22
  %28 = landingpad { ptr, i32 }
          cleanup
  %29 = extractvalue { ptr, i32 } %28, 0
  store ptr %29, ptr %8, align 8
  %30 = extractvalue { ptr, i32 } %28, 1
  store i32 %30, ptr %9, align 4
  br label %97

31:                                               ; preds = %26, %3
  call void @llvm.lifetime.start.p0(i64 8, ptr %10) #3
  %32 = load ptr, ptr %6, align 8, !tbaa !83
  store ptr %32, ptr %10, align 8, !tbaa !83
  call void @llvm.lifetime.start.p0(i64 8, ptr %11) #3
  %33 = load ptr, ptr %10, align 8, !tbaa !83
  %34 = invoke noundef ptr @_ZNK6vectorISt4pairI8rationalP3appELb1EjE5beginEv(ptr noundef nonnull align 8 dereferenceable(8) %33)
          to label %35 unwind label %44

35:                                               ; preds = %31
  store ptr %34, ptr %11, align 8, !tbaa !99
  call void @llvm.lifetime.start.p0(i64 8, ptr %12) #3
  %36 = load ptr, ptr %10, align 8, !tbaa !83
  %37 = invoke noundef ptr @_ZNK6vectorISt4pairI8rationalP3appELb1EjE3endEv(ptr noundef nonnull align 8 dereferenceable(8) %36)
          to label %38 unwind label %48

38:                                               ; preds = %35
  store ptr %37, ptr %12, align 8, !tbaa !99
  br label %39

39:                                               ; preds = %61, %38
  %40 = load ptr, ptr %11, align 8, !tbaa !99
  %41 = load ptr, ptr %12, align 8, !tbaa !99
  %42 = icmp ne ptr %40, %41
  br i1 %42, label %52, label %43

43:                                               ; preds = %39
  call void @llvm.lifetime.end.p0(i64 8, ptr %12) #3
  call void @llvm.lifetime.end.p0(i64 8, ptr %11) #3
  call void @llvm.lifetime.end.p0(i64 8, ptr %10) #3
  br label %70

44:                                               ; preds = %31
  %45 = landingpad { ptr, i32 }
          cleanup
  %46 = extractvalue { ptr, i32 } %45, 0
  store ptr %46, ptr %8, align 8
  %47 = extractvalue { ptr, i32 } %45, 1
  store i32 %47, ptr %9, align 4
  br label %69

48:                                               ; preds = %35
  %49 = landingpad { ptr, i32 }
          cleanup
  %50 = extractvalue { ptr, i32 } %49, 0
  store ptr %50, ptr %8, align 8
  %51 = extractvalue { ptr, i32 } %49, 1
  store i32 %51, ptr %9, align 4
  br label %68

52:                                               ; preds = %39
  call void @llvm.lifetime.start.p0(i64 8, ptr %13) #3
  %53 = load ptr, ptr %11, align 8, !tbaa !99
  store ptr %53, ptr %13, align 8, !tbaa !99
  %54 = load ptr, ptr %13, align 8, !tbaa !99
  %55 = getelementptr inbounds nuw %"struct.std::pair", ptr %54, i32 0, i32 0
  %56 = load ptr, ptr %13, align 8, !tbaa !99
  %57 = getelementptr inbounds nuw %"struct.std::pair", ptr %56, i32 0, i32 1
  %58 = load ptr, ptr %57, align 8, !tbaa !129
  %59 = invoke noundef zeroext i1 @_ZN3smt11farkas_util3addERK8rationalP3app(ptr noundef nonnull align 8 dereferenceable(128) %7, ptr noundef nonnull align 8 dereferenceable(32) %55, ptr noundef %58)
          to label %60 unwind label %64

60:                                               ; preds = %52
  call void @llvm.lifetime.end.p0(i64 8, ptr %13) #3
  br label %61

61:                                               ; preds = %60
  %62 = load ptr, ptr %11, align 8, !tbaa !99
  %63 = getelementptr inbounds nuw %"struct.std::pair", ptr %62, i32 1
  store ptr %63, ptr %11, align 8, !tbaa !99
  br label %39

64:                                               ; preds = %52
  %65 = landingpad { ptr, i32 }
          cleanup
  %66 = extractvalue { ptr, i32 } %65, 0
  store ptr %66, ptr %8, align 8
  %67 = extractvalue { ptr, i32 } %65, 1
  store i32 %67, ptr %9, align 4
  call void @llvm.lifetime.end.p0(i64 8, ptr %13) #3
  br label %68

68:                                               ; preds = %64, %48
  call void @llvm.lifetime.end.p0(i64 8, ptr %12) #3
  br label %69

69:                                               ; preds = %68, %44
  call void @llvm.lifetime.end.p0(i64 8, ptr %11) #3
  call void @llvm.lifetime.end.p0(i64 8, ptr %10) #3
  br label %97

70:                                               ; preds = %43
  %71 = getelementptr inbounds nuw %"class.spacer::unsat_core_plugin_farkas_lemma", ptr %16, i32 0, i32 2
  %72 = load i8, ptr %71, align 1, !tbaa !71, !range !73, !noundef !74
  %73 = trunc i8 %72 to i1
  br i1 %73, label %74, label %76

74:                                               ; preds = %70
  invoke void @_ZN3smt11farkas_util3getEv(ptr dead_on_unwind writable sret(%class.obj_ref) align 8 %0, ptr noundef nonnull align 8 dereferenceable(128) %7)
          to label %75 unwind label %27

75:                                               ; preds = %74
  store i32 1, ptr %14, align 4
  br label %96

76:                                               ; preds = %70
  %77 = getelementptr inbounds nuw %"class.spacer::unsat_core_plugin", ptr %16, i32 0, i32 1
  %78 = load ptr, ptr %77, align 8, !tbaa !39
  call void @llvm.lifetime.start.p0(i64 16, ptr %15) #3
  invoke void @_ZN3smt11farkas_util3getEv(ptr dead_on_unwind writable sret(%class.obj_ref) align 8 %15, ptr noundef nonnull align 8 dereferenceable(128) %7)
          to label %79 unwind label %87

79:                                               ; preds = %76
  %80 = invoke noundef ptr @_ZNK7obj_refI4expr11ast_managerEcvPS0_Ev(ptr noundef nonnull align 8 dereferenceable(16) %15)
          to label %81 unwind label %91

81:                                               ; preds = %79
  %82 = invoke noundef ptr @_Z6mk_notR11ast_managerP4expr(ptr noundef nonnull align 8 dereferenceable(976) %78, ptr noundef %80)
          to label %83 unwind label %91

83:                                               ; preds = %81
  %84 = getelementptr inbounds nuw %"class.spacer::unsat_core_plugin", ptr %16, i32 0, i32 1
  %85 = load ptr, ptr %84, align 8, !tbaa !39
  invoke void @_ZN7obj_refI4expr11ast_managerEC2EPS0_RS1_(ptr noundef nonnull align 8 dereferenceable(16) %0, ptr noundef %82, ptr noundef nonnull align 8 dereferenceable(976) %85)
          to label %86 unwind label %91

86:                                               ; preds = %83
  call void @_ZN7obj_refI4expr11ast_managerED2Ev(ptr noundef nonnull align 8 dereferenceable(16) %15) #3
  call void @llvm.lifetime.end.p0(i64 16, ptr %15) #3
  store i32 1, ptr %14, align 4
  br label %96

87:                                               ; preds = %76
  %88 = landingpad { ptr, i32 }
          cleanup
  %89 = extractvalue { ptr, i32 } %88, 0
  store ptr %89, ptr %8, align 8
  %90 = extractvalue { ptr, i32 } %88, 1
  store i32 %90, ptr %9, align 4
  br label %95

91:                                               ; preds = %83, %81, %79
  %92 = landingpad { ptr, i32 }
          cleanup
  %93 = extractvalue { ptr, i32 } %92, 0
  store ptr %93, ptr %8, align 8
  %94 = extractvalue { ptr, i32 } %92, 1
  store i32 %94, ptr %9, align 4
  call void @_ZN7obj_refI4expr11ast_managerED2Ev(ptr noundef nonnull align 8 dereferenceable(16) %15) #3
  br label %95

95:                                               ; preds = %91, %87
  call void @llvm.lifetime.end.p0(i64 16, ptr %15) #3
  br label %97

96:                                               ; preds = %86, %75
  call void @_ZN3smt11farkas_utilD2Ev(ptr noundef nonnull align 8 dereferenceable(128) %7) #3
  call void @llvm.lifetime.end.p0(i64 128, ptr %7) #3
  ret void

97:                                               ; preds = %95, %69, %27
  call void @_ZN3smt11farkas_utilD2Ev(ptr noundef nonnull align 8 dereferenceable(128) %7) #3
  call void @llvm.lifetime.end.p0(i64 128, ptr %7) #3
  br label %98

98:                                               ; preds = %97
  %99 = load ptr, ptr %8, align 8
  %100 = load i32, ptr %9, align 4
  %101 = insertvalue { ptr, i32 } poison, ptr %99, 0
  %102 = insertvalue { ptr, i32 } %101, i32 %100, 1
  resume { ptr, i32 } %102
}