; Function Attrs: mustprogress uwtable
define hidden void @_ZN6spacer30unsat_core_plugin_farkas_lemma26compute_linear_combinationERK6vectorISt4pairI8rationalP3appELb1EjE(ptr dead_on_unwind noalias writable sret(%class.obj_ref) align 8 %0, ptr noundef nonnull readonly align 8 captures(none) dereferenceable(26) %1, ptr noundef nonnull readonly align 8 captures(none) dereferenceable(8) %2) local_unnamed_addr #4 align 2 personality ptr @__gxx_personality_v0 {
  %4 = alloca %"class.smt::farkas_util", align 8
  %5 = alloca %class.obj_ref, align 8
  call void @llvm.lifetime.start.p0(i64 128, ptr nonnull %4) #23
  %6 = getelementptr inbounds nuw i8, ptr %1, i64 8
  %7 = load ptr, ptr %6, align 8, !tbaa !39
  call void @_ZN3smt11farkas_utilC1ER11ast_manager(ptr noundef nonnull align 8 dereferenceable(128) %4, ptr noundef nonnull align 8 dereferenceable(976) %7)
  %8 = getelementptr inbounds nuw i8, ptr %1, i64 25
  %9 = load i8, ptr %8, align 1, !tbaa !132, !range !134, !noundef !135
  %10 = trunc nuw i8 %9 to i1
  br i1 %10, label %11, label %17

11:                                               ; preds = %3
  %12 = getelementptr inbounds nuw i8, ptr %1, i64 24
  %13 = load i8, ptr %12, align 8, !tbaa !197, !range !134, !noundef !135
  %14 = getelementptr inbounds nuw i8, ptr %4, i64 80
  store i8 %13, ptr %14, align 8, !tbaa !198
  br label %17

15:                                               ; preds = %33
  %16 = landingpad { ptr, i32 }
          cleanup
  br label %63

17:                                               ; preds = %11, %3
  %18 = load ptr, ptr %2, align 8, !tbaa !127
  %19 = icmp eq ptr %18, null
  br i1 %19, label %._crit_edge, label %_ZNK6vectorISt4pairI8rationalP3appELb1EjE3endEv.exit

_ZNK6vectorISt4pairI8rationalP3appELb1EjE3endEv.exit: ; preds = %17
  %20 = getelementptr inbounds i8, ptr %18, i64 -4
  %21 = load i32, ptr %20, align 4, !tbaa !160
  %22 = zext i32 %21 to i64
  %23 = getelementptr inbounds nuw %"struct.std::pair", ptr %18, i64 %22
  %.not18 = icmp eq i32 %21, 0
  br i1 %.not18, label %._crit_edge, label %.lr.ph

._crit_edge.loopexit:                             ; preds = %29
  %.pre = load i8, ptr %8, align 1, !tbaa !132, !range !134
  br label %._crit_edge

._crit_edge:                                      ; preds = %17, %._crit_edge.loopexit, %_ZNK6vectorISt4pairI8rationalP3appELb1EjE3endEv.exit
  %24 = phi i8 [ %.pre, %._crit_edge.loopexit ], [ %9, %_ZNK6vectorISt4pairI8rationalP3appELb1EjE3endEv.exit ], [ %9, %17 ]
  %25 = trunc nuw i8 %24 to i1
  br i1 %25, label %33, label %34

.lr.ph:                                           ; preds = %_ZNK6vectorISt4pairI8rationalP3appELb1EjE3endEv.exit, %29
  %.01319 = phi ptr [ %30, %29 ], [ %18, %_ZNK6vectorISt4pairI8rationalP3appELb1EjE3endEv.exit ]
  %26 = getelementptr inbounds nuw i8, ptr %.01319, i64 32
  %27 = load ptr, ptr %26, align 8, !tbaa !156
  %28 = invoke noundef zeroext i1 @_ZN3smt11farkas_util3addERK8rationalP3app(ptr noundef nonnull align 8 dereferenceable(128) %4, ptr noundef nonnull align 8 dereferenceable(32) %.01319, ptr noundef %27)
          to label %29 unwind label %31

29:                                               ; preds = %.lr.ph
  %30 = getelementptr inbounds nuw i8, ptr %.01319, i64 40
  %.not = icmp eq ptr %30, %23
  br i1 %.not, label %._crit_edge.loopexit, label %.lr.ph

31:                                               ; preds = %.lr.ph
  %32 = landingpad { ptr, i32 }
          cleanup
  br label %63

33:                                               ; preds = %._crit_edge
  invoke void @_ZN3smt11farkas_util3getEv(ptr dead_on_unwind writable sret(%class.obj_ref) align 8 %0, ptr noundef nonnull align 8 dereferenceable(128) %4)
          to label %62 unwind label %15

34:                                               ; preds = %._crit_edge
  %35 = load ptr, ptr %6, align 8, !tbaa !39
  call void @llvm.lifetime.start.p0(i64 16, ptr nonnull %5) #23
  invoke void @_ZN3smt11farkas_util3getEv(ptr dead_on_unwind nonnull writable sret(%class.obj_ref) align 8 %5, ptr noundef nonnull align 8 dereferenceable(128) %4)
          to label %36 unwind label %57

36:                                               ; preds = %34
  %37 = load ptr, ptr %5, align 8, !tbaa !182
  %38 = invoke noundef ptr @_Z6mk_notR11ast_managerP4expr(ptr noundef nonnull align 8 dereferenceable(976) %35, ptr noundef %37)
          to label %39 unwind label %59

39:                                               ; preds = %36
  %40 = load ptr, ptr %6, align 8, !tbaa !39
  store ptr %38, ptr %0, align 8, !tbaa !182
  %41 = getelementptr inbounds nuw i8, ptr %0, i64 8
  store ptr %40, ptr %41, align 8, !tbaa !30
  %.not.i.i = icmp eq ptr %38, null
  br i1 %.not.i.i, label %_ZN7obj_refI4expr11ast_managerEC2EPS0_RS1_.exit, label %_ZN11ast_manager7inc_refEP3ast.exit.i.i

_ZN11ast_manager7inc_refEP3ast.exit.i.i:          ; preds = %39
  %42 = getelementptr inbounds nuw i8, ptr %38, i64 8
  %43 = load i32, ptr %42, align 4, !tbaa !185
  %44 = add i32 %43, 1
  store i32 %44, ptr %42, align 4, !tbaa !185
  br label %_ZN7obj_refI4expr11ast_managerEC2EPS0_RS1_.exit

_ZN7obj_refI4expr11ast_managerEC2EPS0_RS1_.exit:  ; preds = %_ZN11ast_manager7inc_refEP3ast.exit.i.i, %39
  %45 = load ptr, ptr %5, align 8, !tbaa !182
  %.not.i.i17 = icmp eq ptr %45, null
  br i1 %.not.i.i17, label %_ZN7obj_refI4expr11ast_managerED2Ev.exit, label %46

46:                                               ; preds = %_ZN7obj_refI4expr11ast_managerEC2EPS0_RS1_.exit
  %47 = getelementptr inbounds nuw i8, ptr %5, i64 8
  %48 = load ptr, ptr %47, align 8, !tbaa !186
  %49 = getelementptr inbounds nuw i8, ptr %45, i64 8
  %50 = load i32, ptr %49, align 4, !tbaa !185
  %51 = add i32 %50, -1
  store i32 %51, ptr %49, align 4, !tbaa !185
  %52 = icmp eq i32 %51, 0
  br i1 %52, label %53, label %_ZN7obj_refI4expr11ast_managerED2Ev.exit

53:                                               ; preds = %46
  invoke void @_ZN11ast_manager11delete_nodeEP3ast(ptr noundef nonnull align 8 dereferenceable(976) %48, ptr noundef nonnull %45)
          to label %_ZN7obj_refI4expr11ast_managerED2Ev.exit unwind label %54

54:                                               ; preds = %53
  %55 = landingpad { ptr, i32 }
          catch ptr null
  %56 = extractvalue { ptr, i32 } %55, 0
  call void @__clang_call_terminate(ptr %56) #24
  unreachable

_ZN7obj_refI4expr11ast_managerED2Ev.exit:         ; preds = %_ZN7obj_refI4expr11ast_managerEC2EPS0_RS1_.exit, %46, %53
  call void @llvm.lifetime.end.p0(i64 16, ptr nonnull %5) #23
  br label %62

57:                                               ; preds = %34
  %58 = landingpad { ptr, i32 }
          cleanup
  br label %61

59:                                               ; preds = %36
  %60 = landingpad { ptr, i32 }
          cleanup
  call void @_ZN7obj_refI4expr11ast_managerED2Ev(ptr noundef nonnull align 8 dereferenceable(16) %5) #23
  br label %61

61:                                               ; preds = %59, %57
  %.pn = phi { ptr, i32 } [ %60, %59 ], [ %58, %57 ]
  call void @llvm.lifetime.end.p0(i64 16, ptr nonnull %5) #23
  br label %63

62:                                               ; preds = %33, %_ZN7obj_refI4expr11ast_managerED2Ev.exit
  call void @_ZN3smt11farkas_utilD2Ev(ptr noundef nonnull align 8 dereferenceable(128) %4) #23
  call void @llvm.lifetime.end.p0(i64 128, ptr nonnull %4) #23
  ret void

63:                                               ; preds = %61, %31, %15
  %.pn15 = phi { ptr, i32 } [ %32, %31 ], [ %16, %15 ], [ %.pn, %61 ]
  call void @_ZN3smt11farkas_utilD2Ev(ptr noundef nonnull align 8 dereferenceable(128) %4) #23
  call void @llvm.lifetime.end.p0(i64 128, ptr nonnull %4) #23
  resume { ptr, i32 } %.pn15
}